; Function Attrs: cold nounwind optsize uwtable
define internal void @uninit(ptr noundef readonly captures(none) %0) #1 {
  %2 = getelementptr inbounds nuw i8, ptr %0, i64 72
  %3 = load ptr, ptr %2, align 8, !tbaa !4
  %4 = getelementptr inbounds nuw i8, ptr %3, i64 232
  br label %10

5:                                                ; preds = %10
  %6 = getelementptr inbounds nuw i8, ptr %3, i64 264
  tail call void @av_frame_free(ptr noundef nonnull %6) #14
  %7 = getelementptr inbounds nuw i8, ptr %3, i64 272
  tail call void @av_frame_free(ptr noundef nonnull %7) #14
  %8 = getelementptr inbounds nuw i8, ptr %3, i64 256
  tail call void @av_freep(ptr noundef nonnull %8) #14
  %9 = getelementptr inbounds nuw i8, ptr %3, i64 80
  tail call void @av_channel_layout_uninit(ptr noundef nonnull %9) #14
  ret void

10:                                               ; preds = %1, %10
  %indvars.iv = phi i64 [ 0, %1 ], [ %indvars.iv.next, %10 ]
  %11 = getelementptr inbounds nuw [3 x ptr], ptr %4, i64 0, i64 %indvars.iv
  tail call void @av_frame_free(ptr noundef nonnull %11) #14
  %indvars.iv.next = add nuw nsw i64 %indvars.iv, 1
  %exitcond.not = icmp eq i64 %indvars.iv.next, 3
  br i1 %exitcond.not, label %5, label %10, !llvm.loop !27
}